target datalayout = "e-m:e-p270:32:32-p271:32:32-p272:64:64-i64:64-i128:128-f80:128-n8:16:32:64-S128"
target triple = "x86_64-pc-linux-gnu"

%struct.NAME_CONSTRAINTS_st = type { ptr, ptr }
%struct.GENERAL_SUBTREE_st = type { ptr, ptr, ptr }
%struct.GENERAL_NAME_st = type { i32, %union.anon }
%union.anon = type { ptr }
%struct.otherName_st = type { ptr, ptr }

; Function Attrs: nounwind uwtable
define internal i32 @nc_minmax_valid(ptr noundef %0) #0 {
  %2 = alloca ptr, align 8
  %3 = alloca ptr, align 8
  %4 = alloca i32, align 4
  store ptr %0, ptr %2, align 8, !tbaa !16
  call void @llvm.lifetime.start.p0(i64 8, ptr %3) #6
  store ptr null, ptr %3, align 8, !tbaa !94
  call void @llvm.lifetime.start.p0(i64 4, ptr %4) #6
  store i32 1, ptr %4, align 4, !tbaa !18
  %5 = load ptr, ptr %2, align 8, !tbaa !16
  %6 = getelementptr inbounds nuw %struct.GENERAL_SUBTREE_st, ptr %5, i32 0, i32 2
  %7 = load ptr, ptr %6, align 8, !tbaa !96
  %8 = icmp ne ptr %7, null
  br i1 %8, label %9, label %10

9:                                                ; preds = %1
  store i32 0, ptr %4, align 4, !tbaa !18
  br label %10

10:                                               ; preds = %9, %1
  %11 = load ptr, ptr %2, align 8, !tbaa !16
  %12 = getelementptr inbounds nuw %struct.GENERAL_SUBTREE_st, ptr %11, i32 0, i32 1
  %13 = load ptr, ptr %12, align 8, !tbaa !97
  %14 = icmp ne ptr %13, null
  br i1 %14, label %15, label %29

15:                                               ; preds = %10
  %16 = load ptr, ptr %2, align 8, !tbaa !16
  %17 = getelementptr inbounds nuw %struct.GENERAL_SUBTREE_st, ptr %16, i32 0, i32 1
  %18 = load ptr, ptr %17, align 8, !tbaa !97
  %19 = call ptr @ASN1_INTEGER_to_BN(ptr noundef %18, ptr noundef null)
  store ptr %19, ptr %3, align 8, !tbaa !94
  %20 = load ptr, ptr %3, align 8, !tbaa !94
  %21 = icmp eq ptr %20, null
  br i1 %21, label %26, label %22

22:                                               ; preds = %15
  %23 = load ptr, ptr %3, align 8, !tbaa !94
  %24 = call i32 @BN_is_zero(ptr noundef %23)
  %25 = icmp ne i32 %24, 0
  br i1 %25, label %27, label %26

26:                                               ; preds = %22, %15
  store i32 0, ptr %4, align 4, !tbaa !18
  br label %27

27:                                               ; preds = %26, %22
  %28 = load ptr, ptr %3, align 8, !tbaa !94
  call void @BN_free(ptr noundef %28)
  br label %29

29:                                               ; preds = %27, %10
  %30 = load i32, ptr %4, align 4, !tbaa !18
  call void @llvm.lifetime.end.p0(i64 4, ptr %4) #6
  call void @llvm.lifetime.end.p0(i64 8, ptr %3) #6
  ret i32 %30
}

; Function Attrs: inlinehint nounwind uwtable
define internal ptr @ossl_check_const_GENERAL_SUBTREE_sk_type(ptr noundef %0) #3 {
  %2 = alloca ptr, align 8
  store ptr %0, ptr %2, align 8, !tbaa !30
  %3 = load ptr, ptr %2, align 8, !tbaa !30
  ret ptr %3
}

; Function Attrs: nounwind uwtable
define internal i32 @nc_match(ptr noundef %0, ptr noundef %1) #0 {
  %3 = alloca i32, align 4
  %4 = alloca ptr, align 8
  %5 = alloca ptr, align 8
  %6 = alloca ptr, align 8
  %7 = alloca i32, align 4
  %8 = alloca i32, align 4
  %9 = alloca i32, align 4
  %10 = alloca i32, align 4
  %11 = alloca i32, align 4
  store ptr %0, ptr %4, align 8, !tbaa !72
  store ptr %1, ptr %5, align 8, !tbaa !14
  call void @llvm.lifetime.start.p0(i64 8, ptr %6) #6
  call void @llvm.lifetime.start.p0(i64 4, ptr %7) #6
  call void @llvm.lifetime.start.p0(i64 4, ptr %8) #6
  call void @llvm.lifetime.start.p0(i64 4, ptr %9) #6
  store i32 0, ptr %9, align 4, !tbaa !18
  call void @llvm.lifetime.start.p0(i64 4, ptr %10) #6
  %12 = load ptr, ptr %4, align 8, !tbaa !72
  %13 = getelementptr inbounds nuw %struct.GENERAL_NAME_st, ptr %12, i32 0, i32 0
  %14 = load i32, ptr %13, align 8, !tbaa !67
  store i32 %14, ptr %10, align 4, !tbaa !18
  %15 = load i32, ptr %10, align 4, !tbaa !18
  %16 = icmp eq i32 %15, 0
  br i1 %16, label %17, label %26

17:                                               ; preds = %2
  %18 = load ptr, ptr %4, align 8, !tbaa !72
  %19 = getelementptr inbounds nuw %struct.GENERAL_NAME_st, ptr %18, i32 0, i32 1
  %20 = load ptr, ptr %19, align 8, !tbaa !24
  %21 = getelementptr inbounds nuw %struct.otherName_st, ptr %20, i32 0, i32 0
  %22 = load ptr, ptr %21, align 8, !tbaa !77
  %23 = call i32 @OBJ_obj2nid(ptr noundef %22)
  %24 = icmp eq i32 %23, 1208
  br i1 %24, label %25, label %26

25:                                               ; preds = %17
  store i32 1, ptr %10, align 4, !tbaa !18
  br label %26

26:                                               ; preds = %25, %17, %2
  store i32 0, ptr %7, align 4, !tbaa !18
  br label %27

27:                                               ; preds = %98, %26
  %28 = load i32, ptr %7, align 4, !tbaa !18
  %29 = load ptr, ptr %5, align 8, !tbaa !14
  %30 = getelementptr inbounds nuw %struct.NAME_CONSTRAINTS_st, ptr %29, i32 0, i32 0
  %31 = load ptr, ptr %30, align 8, !tbaa !36
  %32 = call ptr @ossl_check_const_GENERAL_SUBTREE_sk_type(ptr noundef %31)
  %33 = call i32 @OPENSSL_sk_num(ptr noundef %32)
  %34 = icmp slt i32 %28, %33
  br i1 %34, label %35, label %101

35:                                               ; preds = %27
  %36 = load ptr, ptr %5, align 8, !tbaa !14
  %37 = getelementptr inbounds nuw %struct.NAME_CONSTRAINTS_st, ptr %36, i32 0, i32 0
  %38 = load ptr, ptr %37, align 8, !tbaa !36
  %39 = call ptr @ossl_check_const_GENERAL_SUBTREE_sk_type(ptr noundef %38)
  %40 = load i32, ptr %7, align 4, !tbaa !18
  %41 = call ptr @OPENSSL_sk_value(ptr noundef %39, i32 noundef %40)
  store ptr %41, ptr %6, align 8, !tbaa !16
  %42 = load i32, ptr %10, align 4, !tbaa !18
  %43 = load ptr, ptr %6, align 8, !tbaa !16
  %44 = getelementptr inbounds nuw %struct.GENERAL_SUBTREE_st, ptr %43, i32 0, i32 0
  %45 = load ptr, ptr %44, align 8, !tbaa !26
  %46 = getelementptr inbounds nuw %struct.GENERAL_NAME_st, ptr %45, i32 0, i32 0
  %47 = load i32, ptr %46, align 8, !tbaa !67
  %48 = icmp ne i32 %42, %47
  br i1 %48, label %67, label %49

49:                                               ; preds = %35
  %50 = load i32, ptr %10, align 4, !tbaa !18
  %51 = icmp eq i32 %50, 0
  br i1 %51, label %52, label %68

52:                                               ; preds = %49
  %53 = load ptr, ptr %4, align 8, !tbaa !72
  %54 = getelementptr inbounds nuw %struct.GENERAL_NAME_st, ptr %53, i32 0, i32 1
  %55 = load ptr, ptr %54, align 8, !tbaa !24
  %56 = getelementptr inbounds nuw %struct.otherName_st, ptr %55, i32 0, i32 0
  %57 = load ptr, ptr %56, align 8, !tbaa !77
  %58 = load ptr, ptr %6, align 8, !tbaa !16
  %59 = getelementptr inbounds nuw %struct.GENERAL_SUBTREE_st, ptr %58, i32 0, i32 0
  %60 = load ptr, ptr %59, align 8, !tbaa !26
  %61 = getelementptr inbounds nuw %struct.GENERAL_NAME_st, ptr %60, i32 0, i32 1
  %62 = load ptr, ptr %61, align 8, !tbaa !24
  %63 = getelementptr inbounds nuw %struct.otherName_st, ptr %62, i32 0, i32 0
  %64 = load ptr, ptr %63, align 8, !tbaa !77
  %65 = call i32 @OBJ_cmp(ptr noundef %57, ptr noundef %64)
  %66 = icmp ne i32 %65, 0
  br i1 %66, label %67, label %68

67:                                               ; preds = %52, %35
  br label %98

68:                                               ; preds = %52, %49
  %69 = load ptr, ptr %6, align 8, !tbaa !16
  %70 = call i32 @nc_minmax_valid(ptr noundef %69)
  %71 = icmp ne i32 %70, 0
  br i1 %71, label %73, label %72

72:                                               ; preds = %68
  store i32 49, ptr %3, align 4
  store i32 1, ptr %11, align 4
  br label %173

73:                                               ; preds = %68
  %74 = load i32, ptr %9, align 4, !tbaa !18
  %75 = icmp eq i32 %74, 2
  br i1 %75, label %76, label %77

76:                                               ; preds = %73
  br label %98

77:                                               ; preds = %73
  %78 = load i32, ptr %9, align 4, !tbaa !18
  %79 = icmp eq i32 %78, 0
  br i1 %79, label %80, label %81

80:                                               ; preds = %77
  store i32 1, ptr %9, align 4, !tbaa !18
  br label %81

81:                                               ; preds = %80, %77
  %82 = load i32, ptr %10, align 4, !tbaa !18
  %83 = load ptr, ptr %4, align 8, !tbaa !72
  %84 = load ptr, ptr %6, align 8, !tbaa !16
  %85 = getelementptr inbounds nuw %struct.GENERAL_SUBTREE_st, ptr %84, i32 0, i32 0
  %86 = load ptr, ptr %85, align 8, !tbaa !26
  %87 = call i32 @nc_match_single(i32 noundef %82, ptr noundef %83, ptr noundef %86)
  store i32 %87, ptr %8, align 4, !tbaa !18
  %88 = load i32, ptr %8, align 4, !tbaa !18
  %89 = icmp eq i32 %88, 0
  br i1 %89, label %90, label %91

90:                                               ; preds = %81
  store i32 2, ptr %9, align 4, !tbaa !18
  br label %97

91:                                               ; preds = %81
  %92 = load i32, ptr %8, align 4, !tbaa !18
  %93 = icmp ne i32 %92, 47
  br i1 %93, label %94, label %96

94:                                               ; preds = %91
  %95 = load i32, ptr %8, align 4, !tbaa !18
  store i32 %95, ptr %3, align 4
  store i32 1, ptr %11, align 4
  br label %173

96:                                               ; preds = %91
  br label %97

97:                                               ; preds = %96, %90
  br label %98

98:                                               ; preds = %97, %76, %67
  %99 = load i32, ptr %7, align 4, !tbaa !18
  %100 = add nsw i32 %99, 1
  store i32 %100, ptr %7, align 4, !tbaa !18
  br label %27, !llvm.loop !79

101:                                              ; preds = %27
  %102 = load i32, ptr %9, align 4, !tbaa !18
  %103 = icmp eq i32 %102, 1
  br i1 %103, label %104, label %105

104:                                              ; preds = %101
  store i32 47, ptr %3, align 4
  store i32 1, ptr %11, align 4
  br label %173

105:                                              ; preds = %101
  store i32 0, ptr %7, align 4, !tbaa !18
  br label %106

106:                                              ; preds = %169, %105
  %107 = load i32, ptr %7, align 4, !tbaa !18
  %108 = load ptr, ptr %5, align 8, !tbaa !14
  %109 = getelementptr inbounds nuw %struct.NAME_CONSTRAINTS_st, ptr %108, i32 0, i32 1
  %110 = load ptr, ptr %109, align 8, !tbaa !38
  %111 = call ptr @ossl_check_const_GENERAL_SUBTREE_sk_type(ptr noundef %110)
  %112 = call i32 @OPENSSL_sk_num(ptr noundef %111)
  %113 = icmp slt i32 %107, %112
  br i1 %113, label %114, label %172

114:                                              ; preds = %106
  %115 = load ptr, ptr %5, align 8, !tbaa !14
  %116 = getelementptr inbounds nuw %struct.NAME_CONSTRAINTS_st, ptr %115, i32 0, i32 1
  %117 = load ptr, ptr %116, align 8, !tbaa !38
  %118 = call ptr @ossl_check_const_GENERAL_SUBTREE_sk_type(ptr noundef %117)
  %119 = load i32, ptr %7, align 4, !tbaa !18
  %120 = call ptr @OPENSSL_sk_value(ptr noundef %118, i32 noundef %119)
  store ptr %120, ptr %6, align 8, !tbaa !16
  %121 = load i32, ptr %10, align 4, !tbaa !18
  %122 = load ptr, ptr %6, align 8, !tbaa !16
  %123 = getelementptr inbounds nuw %struct.GENERAL_SUBTREE_st, ptr %122, i32 0, i32 0
  %124 = load ptr, ptr %123, align 8, !tbaa !26
  %125 = getelementptr inbounds nuw %struct.GENERAL_NAME_st, ptr %124, i32 0, i32 0
  %126 = load i32, ptr %125, align 8, !tbaa !67
  %127 = icmp ne i32 %121, %126
  br i1 %127, label %146, label %128

128:                                              ; preds = %114
  %129 = load i32, ptr %10, align 4, !tbaa !18
  %130 = icmp eq i32 %129, 0
  br i1 %130, label %131, label %147

131:                                              ; preds = %128
  %132 = load ptr, ptr %4, align 8, !tbaa !72
  %133 = getelementptr inbounds nuw %struct.GENERAL_NAME_st, ptr %132, i32 0, i32 1
  %134 = load ptr, ptr %133, align 8, !tbaa !24
  %135 = getelementptr inbounds nuw %struct.otherName_st, ptr %134, i32 0, i32 0
  %136 = load ptr, ptr %135, align 8, !tbaa !77
  %137 = load ptr, ptr %6, align 8, !tbaa !16
  %138 = getelementptr inbounds nuw %struct.GENERAL_SUBTREE_st, ptr %137, i32 0, i32 0
  %139 = load ptr, ptr %138, align 8, !tbaa !26
  %140 = getelementptr inbounds nuw %struct.GENERAL_NAME_st, ptr %139, i32 0, i32 1
  %141 = load ptr, ptr %140, align 8, !tbaa !24
  %142 = getelementptr inbounds nuw %struct.otherName_st, ptr %141, i32 0, i32 0
  %143 = load ptr, ptr %142, align 8, !tbaa !77
  %144 = call i32 @OBJ_cmp(ptr noundef %136, ptr noundef %143)
  %145 = icmp ne i32 %144, 0
  br i1 %145, label %146, label %147

146:                                              ; preds = %131, %114
  br label %169

147:                                              ; preds = %131, %128
  %148 = load ptr, ptr %6, align 8, !tbaa !16
  %149 = call i32 @nc_minmax_valid(ptr noundef %148)
  %150 = icmp ne i32 %149, 0
  br i1 %150, label %152, label %151

151:                                              ; preds = %147
  store i32 49, ptr %3, align 4
  store i32 1, ptr %11, align 4
  br label %173

152:                                              ; preds = %147
  %153 = load i32, ptr %10, align 4, !tbaa !18
  %154 = load ptr, ptr %4, align 8, !tbaa !72
  %155 = load ptr, ptr %6, align 8, !tbaa !16
  %156 = getelementptr inbounds nuw %struct.GENERAL_SUBTREE_st, ptr %155, i32 0, i32 0
  %157 = load ptr, ptr %156, align 8, !tbaa !26
  %158 = call i32 @nc_match_single(i32 noundef %153, ptr noundef %154, ptr noundef %157)
  store i32 %158, ptr %8, align 4, !tbaa !18
  %159 = load i32, ptr %8, align 4, !tbaa !18
  %160 = icmp eq i32 %159, 0
  br i1 %160, label %161, label %162

161:                                              ; preds = %152
  store i32 48, ptr %3, align 4
  store i32 1, ptr %11, align 4
  br label %173

162:                                              ; preds = %152
  %163 = load i32, ptr %8, align 4, !tbaa !18
  %164 = icmp ne i32 %163, 47
  br i1 %164, label %165, label %167

165:                                              ; preds = %162
  %166 = load i32, ptr %8, align 4, !tbaa !18
  store i32 %166, ptr %3, align 4
  store i32 1, ptr %11, align 4
  br label %173

167:                                              ; preds = %162
  br label %168

168:                                              ; preds = %167
  br label %169

169:                                              ; preds = %168, %146
  %170 = load i32, ptr %7, align 4, !tbaa !18
  %171 = add nsw i32 %170, 1
  store i32 %171, ptr %7, align 4, !tbaa !18
  br label %106, !llvm.loop !80

172:                                              ; preds = %106
  store i32 0, ptr %3, align 4
  store i32 1, ptr %11, align 4
  br label %173

173:                                              ; preds = %172, %165, %161, %151, %104, %94, %72
  call void @llvm.lifetime.end.p0(i64 4, ptr %10) #6
  call void @llvm.lifetime.end.p0(i64 4, ptr %9) #6
  call void @llvm.lifetime.end.p0(i64 4, ptr %8) #6
  call void @llvm.lifetime.end.p0(i64 4, ptr %7) #6
  call void @llvm.lifetime.end.p0(i64 8, ptr %6) #6
  %174 = load i32, ptr %3, align 4
  ret i32 %174
}