; Function Attrs: nounwind uwtable
define internal fastcc range(i32 0, 54) i32 @nc_match(ptr noundef readonly captures(none) %0, ptr noundef readonly captures(none) %1) unnamed_addr #1 {
  %3 = load i32, ptr %0, align 8, !tbaa !49
  %4 = icmp eq i32 %3, 0
  br i1 %4, label %5, label %11

5:                                                ; preds = %2
  %6 = getelementptr inbounds nuw i8, ptr %0, i64 8
  %7 = load ptr, ptr %6, align 8, !tbaa !11
  %8 = load ptr, ptr %7, align 8, !tbaa !53
  %9 = tail call i32 @OBJ_obj2nid(ptr noundef %8) #9
  %10 = icmp eq i32 %9, 1208
  %spec.select = zext i1 %10 to i32
  br label %11

11:                                               ; preds = %5, %2
  %.0 = phi i32 [ %3, %2 ], [ %spec.select, %5 ]
  %.0.fr = freeze i32 %.0
  %12 = load ptr, ptr %1, align 8, !tbaa !19
  %13 = tail call i32 @OPENSSL_sk_num(ptr noundef %12) #9
  %14 = icmp sgt i32 %13, 0
  br i1 %14, label %.lr.ph, label %.preheader

.lr.ph:                                           ; preds = %11
  %15 = icmp eq i32 %.0.fr, 0
  %16 = getelementptr inbounds nuw i8, ptr %0, i64 8
  br label %17

17:                                               ; preds = %.lr.ph, %47
  %.04069 = phi i32 [ 0, %.lr.ph ], [ %.1, %47 ]
  %.04168 = phi i32 [ 0, %.lr.ph ], [ %48, %47 ]
  %18 = load ptr, ptr %1, align 8, !tbaa !19
  %19 = tail call ptr @OPENSSL_sk_value(ptr noundef %18, i32 noundef %.04168) #9
  %20 = load ptr, ptr %19, align 8, !tbaa !13
  %21 = load i32, ptr %20, align 8, !tbaa !49
  %.not51 = icmp eq i32 %.0.fr, %21
  br i1 %.not51, label %22, label %47

22:                                               ; preds = %17
  br i1 %15, label %23, label %30

23:                                               ; preds = %22
  %24 = load ptr, ptr %16, align 8, !tbaa !11
  %25 = load ptr, ptr %24, align 8, !tbaa !53
  %26 = getelementptr inbounds nuw i8, ptr %20, i64 8
  %27 = load ptr, ptr %26, align 8, !tbaa !11
  %28 = load ptr, ptr %27, align 8, !tbaa !53
  %29 = tail call i32 @OBJ_cmp(ptr noundef %25, ptr noundef %28) #9
  %.not52 = icmp eq i32 %29, 0
  br i1 %.not52, label %30, label %47

30:                                               ; preds = %23, %22
  %31 = getelementptr i8, ptr %19, i64 8
  %.val = load ptr, ptr %31, align 8, !tbaa !55
  %32 = getelementptr i8, ptr %19, i64 16
  %.val55 = load ptr, ptr %32, align 8, !tbaa !56
  %.not.i = icmp eq ptr %.val55, null
  %spec.store.select.i = zext i1 %.not.i to i32
  %.not8.i = icmp eq ptr %.val, null
  br i1 %.not8.i, label %nc_minmax_valid.exit, label %33

33:                                               ; preds = %30
  %34 = tail call ptr @ASN1_INTEGER_to_BN(ptr noundef nonnull %.val, ptr noundef null) #9
  %35 = icmp eq ptr %34, null
  br i1 %35, label %38, label %36

36:                                               ; preds = %33
  %37 = tail call i32 @BN_is_zero(ptr noundef nonnull %34) #9
  %.not9.i = icmp eq i32 %37, 0
  br i1 %.not9.i, label %38, label %39

38:                                               ; preds = %36, %33
  br label %39

39:                                               ; preds = %38, %36
  %.1.i = phi i32 [ 0, %38 ], [ %spec.store.select.i, %36 ]
  tail call void @BN_free(ptr noundef %34) #9
  br label %nc_minmax_valid.exit

nc_minmax_valid.exit:                             ; preds = %30, %39
  %.0.i = phi i32 [ %.1.i, %39 ], [ %spec.store.select.i, %30 ]
  %.not53 = icmp eq i32 %.0.i, 0
  br i1 %.not53, label %.split.us, label %40

40:                                               ; preds = %nc_minmax_valid.exit
  %41 = icmp eq i32 %.04069, 2
  br i1 %41, label %47, label %42

42:                                               ; preds = %40
  %43 = load ptr, ptr %19, align 8, !tbaa !13
  %44 = tail call fastcc i32 @nc_match_single(i32 noundef %.0.fr, ptr noundef nonnull %0, ptr noundef %43)
  %45 = icmp eq i32 %44, 0
  br i1 %45, label %47, label %46

46:                                               ; preds = %42
  %spec.store.select = tail call i32 @llvm.umax.i32(i32 %.04069, i32 1)
  %.not54 = icmp eq i32 %44, 47
  br i1 %.not54, label %47, label %.split.us

47:                                               ; preds = %42, %46, %40, %17, %23
  %.1 = phi i32 [ %.04069, %17 ], [ %.04069, %23 ], [ 2, %40 ], [ %spec.store.select, %46 ], [ 2, %42 ]
  %48 = add nuw nsw i32 %.04168, 1
  %49 = load ptr, ptr %1, align 8, !tbaa !19
  %50 = tail call i32 @OPENSSL_sk_num(ptr noundef %49) #9
  %51 = icmp slt i32 %48, %50
  br i1 %51, label %17, label %._crit_edge, !llvm.loop !57

._crit_edge:                                      ; preds = %47
  %52 = icmp eq i32 %.1, 1
  br i1 %52, label %.split.us, label %.preheader

.preheader:                                       ; preds = %11, %._crit_edge
  %53 = getelementptr inbounds nuw i8, ptr %1, i64 8
  %54 = load ptr, ptr %53, align 8, !tbaa !21
  %55 = tail call i32 @OPENSSL_sk_num(ptr noundef %54) #9
  %56 = icmp sgt i32 %55, 0
  br i1 %56, label %.lr.ph71, label %.split.us

.lr.ph71:                                         ; preds = %.preheader
  %57 = icmp eq i32 %.0.fr, 0
  %58 = getelementptr inbounds nuw i8, ptr %0, i64 8
  br i1 %57, label %.lr.ph71.split.us, label %.lr.ph71.split

.lr.ph71.split.us:                                ; preds = %.lr.ph71, %83
  %.14270.us = phi i32 [ %84, %83 ], [ 0, %.lr.ph71 ]
  %59 = load ptr, ptr %53, align 8, !tbaa !21
  %60 = tail call ptr @OPENSSL_sk_value(ptr noundef %59, i32 noundef %.14270.us) #9
  %61 = load ptr, ptr %60, align 8, !tbaa !13
  %62 = load i32, ptr %61, align 8, !tbaa !49
  %.not.us = icmp eq i32 %62, 0
  br i1 %.not.us, label %63, label %83

63:                                               ; preds = %.lr.ph71.split.us
  %64 = load ptr, ptr %58, align 8, !tbaa !11
  %65 = load ptr, ptr %64, align 8, !tbaa !53
  %66 = getelementptr inbounds nuw i8, ptr %61, i64 8
  %67 = load ptr, ptr %66, align 8, !tbaa !11
  %68 = load ptr, ptr %67, align 8, !tbaa !53
  %69 = tail call i32 @OBJ_cmp(ptr noundef %65, ptr noundef %68) #9
  %.not48.us = icmp eq i32 %69, 0
  br i1 %.not48.us, label %70, label %83

70:                                               ; preds = %63
  %71 = getelementptr i8, ptr %60, i64 8
  %.val56.us = load ptr, ptr %71, align 8, !tbaa !55
  %72 = getelementptr i8, ptr %60, i64 16
  %.val57.us = load ptr, ptr %72, align 8, !tbaa !56
  %.not.i58.us = icmp eq ptr %.val57.us, null
  %spec.store.select.i59.us = zext i1 %.not.i58.us to i32
  %.not8.i60.us = icmp eq ptr %.val56.us, null
  br i1 %.not8.i60.us, label %nc_minmax_valid.exit64.us, label %73

73:                                               ; preds = %70
  %74 = tail call ptr @ASN1_INTEGER_to_BN(ptr noundef nonnull %.val56.us, ptr noundef null) #9
  %75 = icmp eq ptr %74, null
  br i1 %75, label %78, label %76

76:                                               ; preds = %73
  %77 = tail call i32 @BN_is_zero(ptr noundef nonnull %74) #9
  %.not9.i61.us = icmp eq i32 %77, 0
  br i1 %.not9.i61.us, label %78, label %79

78:                                               ; preds = %76, %73
  br label %79

79:                                               ; preds = %78, %76
  %.1.i62.us = phi i32 [ 0, %78 ], [ %spec.store.select.i59.us, %76 ]
  tail call void @BN_free(ptr noundef %74) #9
  br label %nc_minmax_valid.exit64.us

nc_minmax_valid.exit64.us:                        ; preds = %79, %70
  %.0.i63.us = phi i32 [ %.1.i62.us, %79 ], [ %spec.store.select.i59.us, %70 ]
  %.not49.us = icmp eq i32 %.0.i63.us, 0
  br i1 %.not49.us, label %.split.us, label %80

80:                                               ; preds = %nc_minmax_valid.exit64.us
  %81 = load ptr, ptr %60, align 8, !tbaa !13
  %82 = tail call fastcc i32 @nc_match_single(i32 noundef 0, ptr noundef nonnull %0, ptr noundef %81)
  switch i32 %82, label %.split.us [
    i32 0, label %.split.us.loopexit96
    i32 47, label %83
  ]

83:                                               ; preds = %80, %63, %.lr.ph71.split.us
  %84 = add nuw nsw i32 %.14270.us, 1
  %85 = load ptr, ptr %53, align 8, !tbaa !21
  %86 = tail call i32 @OPENSSL_sk_num(ptr noundef %85) #9
  %87 = icmp slt i32 %84, %86
  br i1 %87, label %.lr.ph71.split.us, label %.split.us, !llvm.loop !58

.lr.ph71.split:                                   ; preds = %.lr.ph71, %105
  %.14270 = phi i32 [ %106, %105 ], [ 0, %.lr.ph71 ]
  %88 = load ptr, ptr %53, align 8, !tbaa !21
  %89 = tail call ptr @OPENSSL_sk_value(ptr noundef %88, i32 noundef %.14270) #9
  %90 = load ptr, ptr %89, align 8, !tbaa !13
  %91 = load i32, ptr %90, align 8, !tbaa !49
  %.not = icmp eq i32 %.0.fr, %91
  br i1 %.not, label %92, label %105

92:                                               ; preds = %.lr.ph71.split
  %93 = getelementptr i8, ptr %89, i64 8
  %.val56 = load ptr, ptr %93, align 8, !tbaa !55
  %94 = getelementptr i8, ptr %89, i64 16
  %.val57 = load ptr, ptr %94, align 8, !tbaa !56
  %.not.i58 = icmp eq ptr %.val57, null
  %spec.store.select.i59 = zext i1 %.not.i58 to i32
  %.not8.i60 = icmp eq ptr %.val56, null
  br i1 %.not8.i60, label %nc_minmax_valid.exit64, label %95

95:                                               ; preds = %92
  %96 = tail call ptr @ASN1_INTEGER_to_BN(ptr noundef nonnull %.val56, ptr noundef null) #9
  %97 = icmp eq ptr %96, null
  br i1 %97, label %100, label %98

98:                                               ; preds = %95
  %99 = tail call i32 @BN_is_zero(ptr noundef nonnull %96) #9
  %.not9.i61 = icmp eq i32 %99, 0
  br i1 %.not9.i61, label %100, label %101

100:                                              ; preds = %98, %95
  br label %101

101:                                              ; preds = %100, %98
  %.1.i62 = phi i32 [ 0, %100 ], [ %spec.store.select.i59, %98 ]
  tail call void @BN_free(ptr noundef %96) #9
  br label %nc_minmax_valid.exit64

nc_minmax_valid.exit64:                           ; preds = %92, %101
  %.0.i63 = phi i32 [ %.1.i62, %101 ], [ %spec.store.select.i59, %92 ]
  %.not49 = icmp eq i32 %.0.i63, 0
  br i1 %.not49, label %.split.us, label %102

102:                                              ; preds = %nc_minmax_valid.exit64
  %103 = load ptr, ptr %89, align 8, !tbaa !13
  %104 = tail call fastcc i32 @nc_match_single(i32 noundef %.0.fr, ptr noundef nonnull %0, ptr noundef %103)
  switch i32 %104, label %.split.us [
    i32 0, label %.split.us.loopexit97
    i32 47, label %105
  ]

105:                                              ; preds = %102, %.lr.ph71.split
  %106 = add nuw nsw i32 %.14270, 1
  %107 = load ptr, ptr %53, align 8, !tbaa !21
  %108 = tail call i32 @OPENSSL_sk_num(ptr noundef %107) #9
  %109 = icmp slt i32 %106, %108
  br i1 %109, label %.lr.ph71.split, label %.split.us, !llvm.loop !58

.split.us.loopexit96:                             ; preds = %80
  br label %.split.us

.split.us.loopexit97:                             ; preds = %102
  br label %.split.us

.split.us:                                        ; preds = %46, %nc_minmax_valid.exit, %nc_minmax_valid.exit64, %105, %nc_minmax_valid.exit64.us, %83, %102, %80, %.split.us.loopexit97, %.split.us.loopexit96, %.preheader, %._crit_edge
  %.043 = phi i32 [ 47, %._crit_edge ], [ 0, %.preheader ], [ %82, %80 ], [ %104, %102 ], [ 49, %nc_minmax_valid.exit64.us ], [ 0, %83 ], [ 48, %.split.us.loopexit96 ], [ 49, %nc_minmax_valid.exit64 ], [ 0, %105 ], [ 48, %.split.us.loopexit97 ], [ %44, %46 ], [ 49, %nc_minmax_valid.exit ]
  ret i32 %.043
}